target datalayout = "e-m:e-p270:32:32-p271:32:32-p272:64:64-i64:64-i128:128-f80:128-n8:16:32:64-S128"
target triple = "x86_64-pc-linux-gnu"

; Function Attrs: nounwind uwtable
define internal float @magnifier_scale_callback(ptr noundef %0, float noundef %1, i32 noundef %2) #0 {
  %4 = alloca ptr, align 8
  %5 = alloca float, align 4
  %6 = alloca i32, align 4
  %7 = alloca float, align 4
  %8 = alloca float, align 4
  %9 = alloca float, align 4
  %10 = alloca float, align 4
  %11 = alloca float, align 4
  %12 = alloca float, align 4
  %13 = alloca float, align 4
  store ptr %0, ptr %4, align 8, !tbaa !11
  store float %1, ptr %5, align 4, !tbaa !83
  store i32 %2, ptr %6, align 4, !tbaa !80
  call void @llvm.lifetime.start.p0(i64 4, ptr %7) #11
  store float 6.000000e+00, ptr %7, align 4, !tbaa !83
  call void @llvm.lifetime.start.p0(i64 4, ptr %8) #11
  store float 0x3FC5555560000000, ptr %8, align 4, !tbaa !83
  call void @llvm.lifetime.start.p0(i64 4, ptr %9) #11
  %14 = call reassoc nsz arcp contract afn double @llvm.tanh.f64(double 3.000000e+00)
  %15 = fptrunc reassoc nsz arcp contract afn double %14 to float
  store float %15, ptr %9, align 4, !tbaa !83
  call void @llvm.lifetime.start.p0(i64 4, ptr %10) #11
  %16 = load float, ptr %9, align 4, !tbaa !83
  %17 = fdiv reassoc nsz arcp contract afn float 1.000000e+00, %16
  store float %17, ptr %10, align 4, !tbaa !83
  call void @llvm.lifetime.start.p0(i64 4, ptr %11) #11
  store float 0x3EB0C6F7A0000000, ptr %11, align 4, !tbaa !83
  call void @llvm.lifetime.start.p0(i64 4, ptr %12) #11
  store float 0x3F1A36E2E0000000, ptr %12, align 4, !tbaa !83
  call void @llvm.lifetime.start.p0(i64 4, ptr %13) #11
  store float 0.000000e+00, ptr %13, align 4, !tbaa !83
  %18 = load i32, ptr %6, align 4, !tbaa !80
  switch i32 %18, label %82 [
    i32 1, label %19
    i32 2, label %51
  ]

19:                                               ; preds = %3
  %20 = load float, ptr %10, align 4, !tbaa !83
  %21 = fpext reassoc nsz arcp contract afn float %20 to double
  %22 = load float, ptr %5, align 4, !tbaa !83
  %23 = fcmp reassoc nsz arcp contract afn ogt float %22, 1.000000e+00
  br i1 %23, label %24, label %25

24:                                               ; preds = %19
  br label %33

25:                                               ; preds = %19
  %26 = load float, ptr %5, align 4, !tbaa !83
  %27 = fcmp reassoc nsz arcp contract afn olt float %26, 0.000000e+00
  br i1 %27, label %28, label %29

28:                                               ; preds = %25
  br label %31

29:                                               ; preds = %25
  %30 = load float, ptr %5, align 4, !tbaa !83
  br label %31

31:                                               ; preds = %29, %28
  %32 = phi reassoc nsz arcp contract afn float [ 0.000000e+00, %28 ], [ %30, %29 ]
  br label %33

33:                                               ; preds = %31, %24
  %34 = phi reassoc nsz arcp contract afn float [ 1.000000e+00, %24 ], [ %32, %31 ]
  %35 = fsub reassoc nsz arcp contract afn float %34, 5.000000e-01
  %36 = fmul reassoc nsz arcp contract afn float 6.000000e+00, %35
  %37 = fpext reassoc nsz arcp contract afn float %36 to double
  %38 = call reassoc nsz arcp contract afn double @llvm.tanh.f64(double %37)
  %39 = fmul reassoc nsz arcp contract afn double %21, %38
  %40 = fadd reassoc nsz arcp contract afn double %39, 1.000000e+00
  %41 = fmul reassoc nsz arcp contract afn double %40, 5.000000e-01
  %42 = fptrunc reassoc nsz arcp contract afn double %41 to float
  store float %42, ptr %13, align 4, !tbaa !83
  %43 = load float, ptr %13, align 4, !tbaa !83
  %44 = fcmp reassoc nsz arcp contract afn ole float %43, 0x3F1A36E2E0000000
  br i1 %44, label %45, label %46

45:                                               ; preds = %33
  store float 0.000000e+00, ptr %13, align 4, !tbaa !83
  br label %46

46:                                               ; preds = %45, %33
  %47 = load float, ptr %13, align 4, !tbaa !83
  %48 = fcmp reassoc nsz arcp contract afn oge float %47, 0x3FEFFF2E40000000
  br i1 %48, label %49, label %50

49:                                               ; preds = %46
  store float 1.000000e+00, ptr %13, align 4, !tbaa !83
  br label %50

50:                                               ; preds = %49, %46
  br label %84

51:                                               ; preds = %3
  %52 = load float, ptr %5, align 4, !tbaa !83
  %53 = fcmp reassoc nsz arcp contract afn ogt float %52, 0x3FEFFFFDE0000000
  br i1 %53, label %54, label %55

54:                                               ; preds = %51
  br label %63

55:                                               ; preds = %51
  %56 = load float, ptr %5, align 4, !tbaa !83
  %57 = fcmp reassoc nsz arcp contract afn olt float %56, 0x3EB0C6F7A0000000
  br i1 %57, label %58, label %59

58:                                               ; preds = %55
  br label %61

59:                                               ; preds = %55
  %60 = load float, ptr %5, align 4, !tbaa !83
  br label %61

61:                                               ; preds = %59, %58
  %62 = phi reassoc nsz arcp contract afn float [ 0x3EB0C6F7A0000000, %58 ], [ %60, %59 ]
  br label %63

63:                                               ; preds = %61, %54
  %64 = phi reassoc nsz arcp contract afn float [ 0x3FEFFFFDE0000000, %54 ], [ %62, %61 ]
  %65 = fmul reassoc nsz arcp contract afn float 2.000000e+00, %64
  %66 = fsub reassoc nsz arcp contract afn float %65, 1.000000e+00
  %67 = load float, ptr %9, align 4, !tbaa !83
  %68 = fmul reassoc nsz arcp contract afn float %66, %67
  %69 = fpext reassoc nsz arcp contract afn float %68 to double
  %70 = call reassoc nsz arcp contract afn double @atanh(double noundef %69) #12
  %71 = fmul reassoc nsz arcp contract afn double 0x3FC5555560000000, %70
  %72 = fadd reassoc nsz arcp contract afn double %71, 5.000000e-01
  %73 = fptrunc reassoc nsz arcp contract afn double %72 to float
  store float %73, ptr %13, align 4, !tbaa !83
  %74 = load float, ptr %13, align 4, !tbaa !83
  %75 = fcmp reassoc nsz arcp contract afn ole float %74, 0x3F1A36E2E0000000
  br i1 %75, label %76, label %77

76:                                               ; preds = %63
  store float 0.000000e+00, ptr %13, align 4, !tbaa !83
  br label %77

77:                                               ; preds = %76, %63
  %78 = load float, ptr %13, align 4, !tbaa !83
  %79 = fcmp reassoc nsz arcp contract afn oge float %78, 0x3FEFFF2E40000000
  br i1 %79, label %80, label %81

80:                                               ; preds = %77
  store float 1.000000e+00, ptr %13, align 4, !tbaa !83
  br label %81

81:                                               ; preds = %80, %77
  br label %84

82:                                               ; preds = %3
  %83 = load float, ptr %5, align 4, !tbaa !83
  store float %83, ptr %13, align 4, !tbaa !83
  br label %84

84:                                               ; preds = %82, %81, %50
  %85 = load float, ptr %13, align 4, !tbaa !83
  call void @llvm.lifetime.end.p0(i64 4, ptr %13) #11
  call void @llvm.lifetime.end.p0(i64 4, ptr %12) #11
  call void @llvm.lifetime.end.p0(i64 4, ptr %11) #11
  call void @llvm.lifetime.end.p0(i64 4, ptr %10) #11
  call void @llvm.lifetime.end.p0(i64 4, ptr %9) #11
  call void @llvm.lifetime.end.p0(i64 4, ptr %8) #11
  call void @llvm.lifetime.end.p0(i64 4, ptr %7) #11
  ret float %85
}