; Function Attrs: mustprogress nofree nosync nounwind willreturn memory(none) uwtable
define internal float @magnifier_scale_callback(ptr readnone captures(none) %0, float noundef %1, i32 noundef %2) #15 {
  %4 = tail call reassoc nsz arcp contract afn double @llvm.tanh.f64(double 3.000000e+00)
  %5 = fptrunc reassoc nsz arcp contract afn double %4 to float
  switch i32 %2, label %40 [
    i32 1, label %6
    i32 2, label %24
  ]

6:                                                ; preds = %3
  %7 = fdiv reassoc nsz arcp contract afn float 1.000000e+00, %5
  %8 = fpext reassoc nsz arcp contract afn float %7 to double
  %9 = fcmp reassoc nsz arcp contract afn ogt float %1, 1.000000e+00
  %10 = fcmp reassoc nsz arcp contract afn olt float %1, 0.000000e+00
  %11 = select reassoc nsz arcp contract afn i1 %10, float 0.000000e+00, float %1
  %12 = fmul reassoc nsz arcp contract afn float %11, 6.000000e+00
  %13 = fadd reassoc nsz arcp contract afn float %12, -3.000000e+00
  %14 = select i1 %9, float 3.000000e+00, float %13
  %15 = fpext reassoc nsz arcp contract afn float %14 to double
  %16 = tail call reassoc nsz arcp contract afn double @llvm.tanh.f64(double %15)
  %17 = fmul reassoc nsz arcp contract afn double %8, 5.000000e-01
  %18 = fmul reassoc nsz arcp contract afn double %17, %16
  %19 = fadd reassoc nsz arcp contract afn double %18, 5.000000e-01
  %20 = fptrunc reassoc nsz arcp contract afn double %19 to float
  %21 = fcmp reassoc nsz arcp contract afn ugt float %20, 0x3F1A36E2E0000000
  %.0 = select nsz i1 %21, float %20, float 0.000000e+00
  %22 = fcmp reassoc nsz arcp contract afn ult float %.0, 0x3FEFFF2E40000000
  br i1 %22, label %40, label %23

23:                                               ; preds = %6
  br label %40

24:                                               ; preds = %3
  %25 = fcmp reassoc nsz arcp contract afn ogt float %1, 0x3FEFFFFDE0000000
  %26 = fcmp reassoc nsz arcp contract afn olt float %1, 0x3EB0C6F7A0000000
  %27 = select reassoc nsz arcp contract afn i1 %26, float 0x3EB0C6F7A0000000, float %1
  %28 = fmul reassoc nsz arcp contract afn float %27, 2.000000e+00
  %29 = fadd reassoc nsz arcp contract afn float %28, -1.000000e+00
  %30 = select i1 %25, float 0x3FEFFFFBC0000000, float %29
  %31 = fmul reassoc nsz arcp contract afn float %30, %5
  %32 = fpext reassoc nsz arcp contract afn float %31 to double
  %33 = tail call reassoc nsz arcp contract afn double @atanh(double noundef %32) #19
  %34 = fmul reassoc nsz arcp contract afn double %33, 0x3FC5555560000000
  %35 = fadd reassoc nsz arcp contract afn double %34, 5.000000e-01
  %36 = fptrunc reassoc nsz arcp contract afn double %35 to float
  %37 = fcmp reassoc nsz arcp contract afn ugt float %36, 0x3F1A36E2E0000000
  %.2 = select nsz i1 %37, float %36, float 0.000000e+00
  %38 = fcmp reassoc nsz arcp contract afn ult float %.2, 0x3FEFFF2E40000000
  br i1 %38, label %40, label %39

39:                                               ; preds = %24
  br label %40

40:                                               ; preds = %3, %24, %39, %6, %23
  %.1 = phi nsz float [ 1.000000e+00, %39 ], [ %.2, %24 ], [ 1.000000e+00, %23 ], [ %.0, %6 ], [ %1, %3 ]
  ret float %.1
}